; Function Attrs: mustprogress nounwind uwtable
define hidden void @_ZN4llvm13X86AsmPrinter21StackMapShadowTracker5countERNS_6MCInstERKNS_15MCSubtargetInfoEPNS_13MCCodeEmitterE(ptr nocapture noundef nonnull align 8 dereferenceable(20) %0, ptr noundef nonnull align 8 dereferenceable(128) %1, ptr noundef nonnull align 8 dereferenceable(288) %2, ptr noundef %3) local_unnamed_addr #0 align 2 {
  %5 = alloca %"class.llvm::SmallString", align 8
  %6 = alloca %"class.llvm::SmallVector.20", align 8
  %7 = getelementptr inbounds nuw i8, ptr %0, i64 8
  %8 = load i8, ptr %7, align 8
  %9 = trunc i8 %8 to i1
  br i1 %9, label %10, label %_ZN4llvm11SmallStringILj256EED2Ev.exit

10:                                               ; preds = %4
  %11 = getelementptr inbounds i8, ptr %5, i64 24
  call void @_ZN4llvm15SmallVectorBaseImEC2EPvm(ptr noundef nonnull align 8 dereferenceable(24) %5, ptr noundef nonnull %11, i64 noundef 256) #19
  %12 = getelementptr inbounds i8, ptr %6, i64 16
  call void @_ZN4llvm15SmallVectorBaseIjEC2EPvm(ptr noundef nonnull align 8 dereferenceable(16) %6, ptr noundef nonnull %12, i64 noundef 4) #19
  %13 = load ptr, ptr %3, align 8
  %14 = getelementptr inbounds i8, ptr %13, i64 24
  %15 = load ptr, ptr %14, align 8
  call void %15(ptr noundef nonnull align 8 dereferenceable(8) %3, ptr noundef nonnull align 8 dereferenceable(128) %1, ptr noundef nonnull align 8 dereferenceable(24) %5, ptr noundef nonnull align 8 dereferenceable(16) %6, ptr noundef nonnull align 8 dereferenceable(288) %2) #19
  %16 = call noundef i64 @_ZNK4llvm15SmallVectorBaseImE4sizeEv(ptr noundef nonnull align 8 dereferenceable(24) %5) #19
  %17 = getelementptr inbounds nuw i8, ptr %0, i64 16
  %18 = load i32, ptr %17, align 8
  %19 = trunc i64 %16 to i32
  %20 = add i32 %18, %19
  store i32 %20, ptr %17, align 8
  %21 = getelementptr inbounds nuw i8, ptr %0, i64 12
  %22 = load i32, ptr %21, align 4
  %.not = icmp ult i32 %20, %22
  br i1 %.not, label %24, label %23

23:                                               ; preds = %10
  store i8 0, ptr %7, align 8
  br label %24

24:                                               ; preds = %23, %10
  %25 = call noundef i64 @_ZNK4llvm15SmallVectorBaseIjE4sizeEv(ptr noundef nonnull align 8 dereferenceable(16) %6) #19
  %26 = load ptr, ptr %6, align 8
  %27 = icmp eq ptr %26, %12
  br i1 %27, label %_ZN4llvm11SmallVectorINS_7MCFixupELj4EED2Ev.exit, label %28

28:                                               ; preds = %24
  call void @free(ptr noundef %26) #19
  br label %_ZN4llvm11SmallVectorINS_7MCFixupELj4EED2Ev.exit

_ZN4llvm11SmallVectorINS_7MCFixupELj4EED2Ev.exit: ; preds = %24, %28
  %29 = call noundef i64 @_ZNK4llvm15SmallVectorBaseImE4sizeEv(ptr noundef nonnull align 8 dereferenceable(24) %5) #19
  %30 = load ptr, ptr %5, align 8
  %31 = icmp eq ptr %30, %11
  br i1 %31, label %_ZN4llvm11SmallStringILj256EED2Ev.exit, label %32

32:                                               ; preds = %_ZN4llvm11SmallVectorINS_7MCFixupELj4EED2Ev.exit
  call void @free(ptr noundef %30) #19
  br label %_ZN4llvm11SmallStringILj256EED2Ev.exit

_ZN4llvm11SmallStringILj256EED2Ev.exit:           ; preds = %32, %_ZN4llvm11SmallVectorINS_7MCFixupELj4EED2Ev.exit, %4
  ret void
}